target datalayout = "e-m:e-p270:32:32-p271:32:32-p272:64:64-i64:64-i128:128-f80:128-n8:16:32:64-S128"
target triple = "x86_64-unknown-linux-gnu"

%"class.icu_75::UObject" = type { ptr }
%"class.icu_75::Char16Ptr" = type { ptr }
%struct.UParseError = type { i32, i32, [16 x i16], [16 x i16] }
%"class.icu_75::UnicodeString" = type { %"class.icu_75::Replaceable", %"union.icu_75::UnicodeString::StackBufferOrFields" }
%"class.icu_75::Replaceable" = type { %"class.icu_75::UObject" }
%"union.icu_75::UnicodeString::StackBufferOrFields" = type { %struct.anon.0, [32 x i8] }
%struct.anon.0 = type { i16, i32, i32, ptr }

; Function Attrs: mustprogress nounwind uwtable
define linkonce_odr noundef ptr @_ZNK6icu_759Char16Ptr3getEv(ptr noundef nonnull align 8 dereferenceable(8) %this) #0 comdat align 2 {
entry:
  %this.addr = alloca ptr, align 8
  store ptr %this, ptr %this.addr, align 8
  %this1 = load ptr, ptr %this.addr, align 8
  %p_ = getelementptr inbounds %"class.icu_75::Char16Ptr", ptr %this1, i32 0, i32 0
  %0 = load ptr, ptr %p_, align 8
  ret ptr %0
}

; Function Attrs: mustprogress nounwind uwtable
define linkonce_odr noundef i32 @_ZNK6icu_7513UnicodeString14getShortLengthEv(ptr noundef nonnull align 8 dereferenceable(64) %this) #0 comdat align 2 {
entry:
  %this.addr = alloca ptr, align 8
  store ptr %this, ptr %this.addr, align 8
  %this1 = load ptr, ptr %this.addr, align 8
  %fUnion = getelementptr inbounds %"class.icu_75::UnicodeString", ptr %this1, i32 0, i32 1
  %fLengthAndFlags = getelementptr inbounds %struct.anon.0, ptr %fUnion, i32 0, i32 0
  %0 = load i16, ptr %fLengthAndFlags, align 8
  %conv = sext i16 %0 to i32
  %shr = ashr i32 %conv, 5
  ret i32 %shr
}

; Function Attrs: mustprogress nounwind uwtable
define linkonce_odr noundef signext i8 @_ZNK6icu_7513UnicodeString14hasShortLengthEv(ptr noundef nonnull align 8 dereferenceable(64) %this) #0 comdat align 2 {
entry:
  %this.addr = alloca ptr, align 8
  store ptr %this, ptr %this.addr, align 8
  %this1 = load ptr, ptr %this.addr, align 8
  %fUnion = getelementptr inbounds %"class.icu_75::UnicodeString", ptr %this1, i32 0, i32 1
  %fLengthAndFlags = getelementptr inbounds %struct.anon.0, ptr %fUnion, i32 0, i32 0
  %0 = load i16, ptr %fLengthAndFlags, align 8
  %conv = sext i16 %0 to i32
  %cmp = icmp sge i32 %conv, 0
  %conv2 = zext i1 %cmp to i8
  ret i8 %conv2
}

; Function Attrs: mustprogress uwtable
define linkonce_odr noundef ptr @_ZNK6icu_759Char16PtrcvPDsEv(ptr noundef nonnull align 8 dereferenceable(8) %this) #2 comdat align 2 {
entry:
  %this.addr = alloca ptr, align 8
  store ptr %this, ptr %this.addr, align 8
  %this1 = load ptr, ptr %this.addr, align 8
  %call = call noundef ptr @_ZNK6icu_759Char16Ptr3getEv(ptr noundef nonnull align 8 dereferenceable(8) %this1)
  ret ptr %call
}

; Function Attrs: mustprogress uwtable
define linkonce_odr noundef i32 @_ZNK6icu_7513UnicodeString6lengthEv(ptr noundef nonnull align 8 dereferenceable(64) %this) #2 comdat align 2 {
entry:
  %this.addr = alloca ptr, align 8
  store ptr %this, ptr %this.addr, align 8
  %this1 = load ptr, ptr %this.addr, align 8
  %call = call noundef signext i8 @_ZNK6icu_7513UnicodeString14hasShortLengthEv(ptr noundef nonnull align 8 dereferenceable(64) %this1)
  %tobool = icmp ne i8 %call, 0
  br i1 %tobool, label %cond.true, label %cond.false

cond.true:                                        ; preds = %entry
  %call2 = call noundef i32 @_ZNK6icu_7513UnicodeString14getShortLengthEv(ptr noundef nonnull align 8 dereferenceable(64) %this1)
  br label %cond.end

cond.false:                                       ; preds = %entry
  %fUnion = getelementptr inbounds %"class.icu_75::UnicodeString", ptr %this1, i32 0, i32 1
  %fLength = getelementptr inbounds %struct.anon.0, ptr %fUnion, i32 0, i32 1
  %0 = load i32, ptr %fLength, align 4
  br label %cond.end

cond.end:                                         ; preds = %cond.false, %cond.true
  %cond = phi i32 [ %call2, %cond.true ], [ %0, %cond.false ]
  ret i32 %cond
}

; Function Attrs: mustprogress nounwind uwtable
define linkonce_odr void @_ZN6icu_759Char16PtrD2Ev(ptr noundef nonnull align 8 dereferenceable(8) %this) unnamed_addr #0 comdat align 2 {
entry:
  %this.addr = alloca ptr, align 8
  store ptr %this, ptr %this.addr, align 8
  %this1 = load ptr, ptr %this.addr, align 8
  %p_ = getelementptr inbounds %"class.icu_75::Char16Ptr", ptr %this1, i32 0, i32 0
  %0 = load ptr, ptr %p_, align 8
  call void asm sideeffect "", "rm,~{memory},~{dirflag},~{fpsr},~{flags}"(ptr %0) #6, !srcloc !4
  ret void
}

; Function Attrs: mustprogress uwtable
define linkonce_odr void @_ZNK6icu_7513UnicodeString7extractEiiNS_9Char16PtrEi(ptr noundef nonnull align 8 dereferenceable(64) %this, i32 noundef %start, i32 noundef %_length, ptr noundef %target, i32 noundef %targetStart) #2 comdat align 2 {
entry:
  %this.addr = alloca ptr, align 8
  %start.addr = alloca i32, align 4
  %_length.addr = alloca i32, align 4
  %target.indirect_addr = alloca ptr, align 8
  %targetStart.addr = alloca i32, align 4
  store ptr %this, ptr %this.addr, align 8
  store i32 %start, ptr %start.addr, align 4
  store i32 %_length, ptr %_length.addr, align 4
  store ptr %target, ptr %target.indirect_addr, align 8
  store i32 %targetStart, ptr %targetStart.addr, align 4
  %this1 = load ptr, ptr %this.addr, align 8
  %0 = load i32, ptr %start.addr, align 4
  %1 = load i32, ptr %_length.addr, align 4
  %call = call noundef ptr @_ZNK6icu_759Char16PtrcvPDsEv(ptr noundef nonnull align 8 dereferenceable(8) %target)
  %2 = load i32, ptr %targetStart.addr, align 4
  call void @_ZNK6icu_7513UnicodeString9doExtractEiiPDsi(ptr noundef nonnull align 8 dereferenceable(64) %this1, i32 noundef %0, i32 noundef %1, ptr noundef %call, i32 noundef %2)
  ret void
}

; Function Attrs: mustprogress nounwind uwtable
define linkonce_odr void @_ZN6icu_759Char16PtrC2EPDs(ptr noundef nonnull align 8 dereferenceable(8) %this, ptr noundef %p) unnamed_addr #0 comdat align 2 {
entry:
  %this.addr = alloca ptr, align 8
  %p.addr = alloca ptr, align 8
  store ptr %this, ptr %this.addr, align 8
  store ptr %p, ptr %p.addr, align 8
  %this1 = load ptr, ptr %this.addr, align 8
  %p_ = getelementptr inbounds %"class.icu_75::Char16Ptr", ptr %this1, i32 0, i32 0
  %0 = load ptr, ptr %p.addr, align 8
  store ptr %0, ptr %p_, align 8
  ret void
}

; Function Attrs: mustprogress uwtable
define void @_ZN6icu_756Format11syntaxErrorERKNS_13UnicodeStringEiR11UParseError(ptr noundef nonnull align 8 dereferenceable(64) %pattern, i32 noundef %pos, ptr noundef nonnull align 4 dereferenceable(72) %parseError) #2 align 2 personality ptr @__gxx_personality_v0 {
entry:
  %pattern.addr = alloca ptr, align 8
  %pos.addr = alloca i32, align 4
  %parseError.addr = alloca ptr, align 8
  %start = alloca i32, align 4
  %stop = alloca i32, align 4
  %agg.tmp = alloca %"class.icu_75::Char16Ptr", align 8
  %exn.slot = alloca ptr, align 8
  %ehselector.slot = alloca i32, align 4
  %agg.tmp13 = alloca %"class.icu_75::Char16Ptr", align 8
  store ptr %pattern, ptr %pattern.addr, align 8
  store i32 %pos, ptr %pos.addr, align 4
  store ptr %parseError, ptr %parseError.addr, align 8
  %0 = load i32, ptr %pos.addr, align 4
  %1 = load ptr, ptr %parseError.addr, align 8
  %offset = getelementptr inbounds %struct.UParseError, ptr %1, i32 0, i32 1
  store i32 %0, ptr %offset, align 4
  %2 = load ptr, ptr %parseError.addr, align 8
  %line = getelementptr inbounds %struct.UParseError, ptr %2, i32 0, i32 0
  store i32 0, ptr %line, align 4
  %3 = load i32, ptr %pos.addr, align 4
  %cmp = icmp slt i32 %3, 16
  br i1 %cmp, label %cond.true, label %cond.false

cond.true:                                        ; preds = %entry
  br label %cond.end

cond.false:                                       ; preds = %entry
  %4 = load i32, ptr %pos.addr, align 4
  %sub = sub nsw i32 %4, 15
  br label %cond.end

cond.end:                                         ; preds = %cond.false, %cond.true
  %cond = phi i32 [ 0, %cond.true ], [ %sub, %cond.false ]
  store i32 %cond, ptr %start, align 4
  %5 = load i32, ptr %pos.addr, align 4
  store i32 %5, ptr %stop, align 4
  %6 = load ptr, ptr %pattern.addr, align 8
  %7 = load i32, ptr %start, align 4
  %8 = load i32, ptr %stop, align 4
  %9 = load i32, ptr %start, align 4
  %sub1 = sub nsw i32 %8, %9
  %10 = load ptr, ptr %parseError.addr, align 8
  %preContext = getelementptr inbounds %struct.UParseError, ptr %10, i32 0, i32 2
  %arraydecay = getelementptr inbounds [16 x i16], ptr %preContext, i64 0, i64 0
  call void @_ZN6icu_759Char16PtrC2EPDs(ptr noundef nonnull align 8 dereferenceable(8) %agg.tmp, ptr noundef %arraydecay)
  invoke void @_ZNK6icu_7513UnicodeString7extractEiiNS_9Char16PtrEi(ptr noundef nonnull align 8 dereferenceable(64) %6, i32 noundef %7, i32 noundef %sub1, ptr noundef %agg.tmp, i32 noundef 0)
          to label %invoke.cont unwind label %lpad

invoke.cont:                                      ; preds = %cond.end
  call void @_ZN6icu_759Char16PtrD2Ev(ptr noundef nonnull align 8 dereferenceable(8) %agg.tmp) #6
  %11 = load ptr, ptr %parseError.addr, align 8
  %preContext2 = getelementptr inbounds %struct.UParseError, ptr %11, i32 0, i32 2
  %12 = load i32, ptr %stop, align 4
  %13 = load i32, ptr %start, align 4
  %sub3 = sub nsw i32 %12, %13
  %idxprom = sext i32 %sub3 to i64
  %arrayidx = getelementptr inbounds [16 x i16], ptr %preContext2, i64 0, i64 %idxprom
  store i16 0, ptr %arrayidx, align 2
  %14 = load i32, ptr %pos.addr, align 4
  %add = add nsw i32 %14, 1
  store i32 %add, ptr %start, align 4
  %15 = load i32, ptr %pos.addr, align 4
  %add4 = add nsw i32 %15, 16
  %16 = load ptr, ptr %pattern.addr, align 8
  %call = call noundef i32 @_ZNK6icu_7513UnicodeString6lengthEv(ptr noundef nonnull align 8 dereferenceable(64) %16)
  %cmp5 = icmp sle i32 %add4, %call
  br i1 %cmp5, label %cond.true6, label %cond.false8

cond.true6:                                       ; preds = %invoke.cont
  %17 = load i32, ptr %pos.addr, align 4
  %add7 = add nsw i32 %17, 15
  br label %cond.end10

cond.false8:                                      ; preds = %invoke.cont
  %18 = load ptr, ptr %pattern.addr, align 8
  %call9 = call noundef i32 @_ZNK6icu_7513UnicodeString6lengthEv(ptr noundef nonnull align 8 dereferenceable(64) %18)
  br label %cond.end10

cond.end10:                                       ; preds = %cond.false8, %cond.true6
  %cond11 = phi i32 [ %add7, %cond.true6 ], [ %call9, %cond.false8 ]
  store i32 %cond11, ptr %stop, align 4
  %19 = load ptr, ptr %pattern.addr, align 8
  %20 = load i32, ptr %start, align 4
  %21 = load i32, ptr %stop, align 4
  %22 = load i32, ptr %start, align 4
  %sub12 = sub nsw i32 %21, %22
  %23 = load ptr, ptr %parseError.addr, align 8
  %postContext = getelementptr inbounds %struct.UParseError, ptr %23, i32 0, i32 3
  %arraydecay14 = getelementptr inbounds [16 x i16], ptr %postContext, i64 0, i64 0
  call void @_ZN6icu_759Char16PtrC2EPDs(ptr noundef nonnull align 8 dereferenceable(8) %agg.tmp13, ptr noundef %arraydecay14)
  invoke void @_ZNK6icu_7513UnicodeString7extractEiiNS_9Char16PtrEi(ptr noundef nonnull align 8 dereferenceable(64) %19, i32 noundef %20, i32 noundef %sub12, ptr noundef %agg.tmp13, i32 noundef 0)
          to label %invoke.cont16 unwind label %lpad15

invoke.cont16:                                    ; preds = %cond.end10
  call void @_ZN6icu_759Char16PtrD2Ev(ptr noundef nonnull align 8 dereferenceable(8) %agg.tmp13) #6
  %24 = load ptr, ptr %parseError.addr, align 8
  %postContext17 = getelementptr inbounds %struct.UParseError, ptr %24, i32 0, i32 3
  %25 = load i32, ptr %stop, align 4
  %26 = load i32, ptr %start, align 4
  %sub18 = sub nsw i32 %25, %26
  %idxprom19 = sext i32 %sub18 to i64
  %arrayidx20 = getelementptr inbounds [16 x i16], ptr %postContext17, i64 0, i64 %idxprom19
  store i16 0, ptr %arrayidx20, align 2
  ret void

lpad:                                             ; preds = %cond.end
  %27 = landingpad { ptr, i32 }
          cleanup
  %28 = extractvalue { ptr, i32 } %27, 0
  store ptr %28, ptr %exn.slot, align 8
  %29 = extractvalue { ptr, i32 } %27, 1
  store i32 %29, ptr %ehselector.slot, align 4
  call void @_ZN6icu_759Char16PtrD2Ev(ptr noundef nonnull align 8 dereferenceable(8) %agg.tmp) #6
  br label %eh.resume

lpad15:                                           ; preds = %cond.end10
  %30 = landingpad { ptr, i32 }
          cleanup
  %31 = extractvalue { ptr, i32 } %30, 0
  store ptr %31, ptr %exn.slot, align 8
  %32 = extractvalue { ptr, i32 } %30, 1
  store i32 %32, ptr %ehselector.slot, align 4
  call void @_ZN6icu_759Char16PtrD2Ev(ptr noundef nonnull align 8 dereferenceable(8) %agg.tmp13) #6
  br label %eh.resume

eh.resume:                                        ; preds = %lpad15, %lpad
  %exn = load ptr, ptr %exn.slot, align 8
  %sel = load i32, ptr %ehselector.slot, align 4
  %lpad.val = insertvalue { ptr, i32 } poison, ptr %exn, 0
  %lpad.val21 = insertvalue { ptr, i32 } %lpad.val, i32 %sel, 1
  resume { ptr, i32 } %lpad.val21
}