; Function Attrs: mustprogress uwtable
define void @_ZN6icu_756Format11syntaxErrorERKNS_13UnicodeStringEiR11UParseError(ptr noundef nonnull align 8 dereferenceable(64) %pattern, i32 noundef %pos, ptr noundef nonnull align 4 dereferenceable(72) %parseError) local_unnamed_addr #8 align 2 personality ptr @__gxx_personality_v0 {
entry:
  %offset = getelementptr inbounds i8, ptr %parseError, i64 4
  store i32 %pos, ptr %offset, align 4
  store i32 0, ptr %parseError, align 4
  %cmp = icmp slt i32 %pos, 16
  %sub = add nsw i32 %pos, -15
  %cond = select i1 %cmp, i32 0, i32 %sub
  %sub1 = sub nsw i32 %pos, %cond
  %preContext = getelementptr inbounds i8, ptr %parseError, i64 8
  invoke void @_ZNK6icu_7513UnicodeString9doExtractEiiPDsi(ptr noundef nonnull align 8 dereferenceable(64) %pattern, i32 noundef %cond, i32 noundef %sub1, ptr noundef nonnull %preContext, i32 noundef 0)
          to label %invoke.cont unwind label %lpad

invoke.cont:                                      ; preds = %entry
  tail call void asm sideeffect "", "rm,~{memory},~{dirflag},~{fpsr},~{flags}"(ptr nonnull %preContext) #13, !srcloc !4
  %idxprom = sext i32 %sub1 to i64
  %arrayidx = getelementptr inbounds [16 x i16], ptr %preContext, i64 0, i64 %idxprom
  store i16 0, ptr %arrayidx, align 2
  %add = add nsw i32 %pos, 1
  %add4 = add nsw i32 %pos, 16
  %fUnion.i.i = getelementptr inbounds i8, ptr %pattern, i64 8
  %0 = load i16, ptr %fUnion.i.i, align 8
  %cmp.i.i = icmp slt i16 %0, 0
  %1 = ashr i16 %0, 5
  %shr.i.i = sext i16 %1 to i32
  %fLength.i = getelementptr inbounds i8, ptr %pattern, i64 12
  %2 = load i32, ptr %fLength.i, align 4
  %cond.i = select i1 %cmp.i.i, i32 %2, i32 %shr.i.i
  %cmp5.not = icmp sgt i32 %add4, %cond.i
  %add7 = add nsw i32 %pos, 15
  %spec.select = select i1 %cmp5.not, i32 %cond.i, i32 %add7
  %sub12 = sub nsw i32 %spec.select, %add
  %postContext = getelementptr inbounds i8, ptr %parseError, i64 40
  invoke void @_ZNK6icu_7513UnicodeString9doExtractEiiPDsi(ptr noundef nonnull align 8 dereferenceable(64) %pattern, i32 noundef %add, i32 noundef %sub12, ptr noundef nonnull %postContext, i32 noundef 0)
          to label %invoke.cont16 unwind label %lpad15

invoke.cont16:                                    ; preds = %invoke.cont
  tail call void asm sideeffect "", "rm,~{memory},~{dirflag},~{fpsr},~{flags}"(ptr nonnull %postContext) #13, !srcloc !4
  %idxprom19 = sext i32 %sub12 to i64
  %arrayidx20 = getelementptr inbounds [16 x i16], ptr %postContext, i64 0, i64 %idxprom19
  store i16 0, ptr %arrayidx20, align 2
  ret void

lpad:                                             ; preds = %entry
  %3 = landingpad { ptr, i32 }
          cleanup
  tail call void asm sideeffect "", "rm,~{memory},~{dirflag},~{fpsr},~{flags}"(ptr nonnull %preContext) #13, !srcloc !4
  br label %eh.resume

lpad15:                                           ; preds = %invoke.cont
  %4 = landingpad { ptr, i32 }
          cleanup
  tail call void asm sideeffect "", "rm,~{memory},~{dirflag},~{fpsr},~{flags}"(ptr nonnull %postContext) #13, !srcloc !4
  br label %eh.resume

eh.resume:                                        ; preds = %lpad15, %lpad
  %.pn = phi { ptr, i32 } [ %4, %lpad15 ], [ %3, %lpad ]
  resume { ptr, i32 } %.pn
}